target datalayout = "e-m:e-p270:32:32-p271:32:32-p272:64:64-i64:64-i128:128-f80:128-n8:16:32:64-S128"
target triple = "x86_64-pc-linux-gnu"

%struct.Gia_IsoMan_t_ = type { ptr, i32, i32, i32, i32, ptr, ptr, ptr, ptr, ptr, ptr, ptr, i64, i64, i64, i64, i64, i64 }
%struct.Vec_Int_t_ = type { i32, i32, ptr }

; Function Attrs: inlinehint nounwind uwtable
define internal void @Vec_IntFree(ptr noundef %0) #3 {
  %2 = alloca ptr, align 8
  store ptr %0, ptr %2, align 8, !tbaa !43
  %3 = load ptr, ptr %2, align 8, !tbaa !43
  %4 = getelementptr inbounds nuw %struct.Vec_Int_t_, ptr %3, i32 0, i32 2
  %5 = load ptr, ptr %4, align 8, !tbaa !46
  %6 = icmp ne ptr %5, null
  br i1 %6, label %7, label %13

7:                                                ; preds = %1
  %8 = load ptr, ptr %2, align 8, !tbaa !43
  %9 = getelementptr inbounds nuw %struct.Vec_Int_t_, ptr %8, i32 0, i32 2
  %10 = load ptr, ptr %9, align 8, !tbaa !46
  call void @free(ptr noundef %10) #12
  %11 = load ptr, ptr %2, align 8, !tbaa !43
  %12 = getelementptr inbounds nuw %struct.Vec_Int_t_, ptr %11, i32 0, i32 2
  store ptr null, ptr %12, align 8, !tbaa !46
  br label %14

13:                                               ; preds = %1
  br label %14

14:                                               ; preds = %13, %7
  %15 = load ptr, ptr %2, align 8, !tbaa !43
  %16 = icmp ne ptr %15, null
  br i1 %16, label %17, label %19

17:                                               ; preds = %14
  %18 = load ptr, ptr %2, align 8, !tbaa !43
  call void @free(ptr noundef %18) #12
  store ptr null, ptr %2, align 8, !tbaa !43
  br label %20

19:                                               ; preds = %14
  br label %20

20:                                               ; preds = %19, %17
  ret void
}

; Function Attrs: nounwind uwtable
define void @Gia_IsoManStop(ptr noundef %0) #0 {
  %2 = alloca ptr, align 8
  store ptr %0, ptr %2, align 8, !tbaa !8
  %3 = load ptr, ptr %2, align 8, !tbaa !8
  %4 = getelementptr inbounds nuw %struct.Gia_IsoMan_t_, ptr %3, i32 0, i32 10
  %5 = load ptr, ptr %4, align 8, !tbaa !23
  call void @Vec_IntFree(ptr noundef %5)
  %6 = load ptr, ptr %2, align 8, !tbaa !8
  %7 = getelementptr inbounds nuw %struct.Gia_IsoMan_t_, ptr %6, i32 0, i32 11
  %8 = load ptr, ptr %7, align 8, !tbaa !24
  call void @Vec_IntFree(ptr noundef %8)
  %9 = load ptr, ptr %2, align 8, !tbaa !8
  %10 = getelementptr inbounds nuw %struct.Gia_IsoMan_t_, ptr %9, i32 0, i32 5
  %11 = load ptr, ptr %10, align 8, !tbaa !20
  %12 = icmp ne ptr %11, null
  br i1 %12, label %13, label %19

13:                                               ; preds = %1
  %14 = load ptr, ptr %2, align 8, !tbaa !8
  %15 = getelementptr inbounds nuw %struct.Gia_IsoMan_t_, ptr %14, i32 0, i32 5
  %16 = load ptr, ptr %15, align 8, !tbaa !20
  call void @free(ptr noundef %16) #12
  %17 = load ptr, ptr %2, align 8, !tbaa !8
  %18 = getelementptr inbounds nuw %struct.Gia_IsoMan_t_, ptr %17, i32 0, i32 5
  store ptr null, ptr %18, align 8, !tbaa !20
  br label %20

19:                                               ; preds = %1
  br label %20

20:                                               ; preds = %19, %13
  %21 = load ptr, ptr %2, align 8, !tbaa !8
  %22 = getelementptr inbounds nuw %struct.Gia_IsoMan_t_, ptr %21, i32 0, i32 6
  %23 = load ptr, ptr %22, align 8, !tbaa !21
  %24 = icmp ne ptr %23, null
  br i1 %24, label %25, label %31

25:                                               ; preds = %20
  %26 = load ptr, ptr %2, align 8, !tbaa !8
  %27 = getelementptr inbounds nuw %struct.Gia_IsoMan_t_, ptr %26, i32 0, i32 6
  %28 = load ptr, ptr %27, align 8, !tbaa !21
  call void @free(ptr noundef %28) #12
  %29 = load ptr, ptr %2, align 8, !tbaa !8
  %30 = getelementptr inbounds nuw %struct.Gia_IsoMan_t_, ptr %29, i32 0, i32 6
  store ptr null, ptr %30, align 8, !tbaa !21
  br label %32

31:                                               ; preds = %20
  br label %32

32:                                               ; preds = %31, %25
  %33 = load ptr, ptr %2, align 8, !tbaa !8
  %34 = getelementptr inbounds nuw %struct.Gia_IsoMan_t_, ptr %33, i32 0, i32 7
  %35 = load ptr, ptr %34, align 8, !tbaa !22
  %36 = icmp ne ptr %35, null
  br i1 %36, label %37, label %43

37:                                               ; preds = %32
  %38 = load ptr, ptr %2, align 8, !tbaa !8
  %39 = getelementptr inbounds nuw %struct.Gia_IsoMan_t_, ptr %38, i32 0, i32 7
  %40 = load ptr, ptr %39, align 8, !tbaa !22
  call void @free(ptr noundef %40) #12
  %41 = load ptr, ptr %2, align 8, !tbaa !8
  %42 = getelementptr inbounds nuw %struct.Gia_IsoMan_t_, ptr %41, i32 0, i32 7
  store ptr null, ptr %42, align 8, !tbaa !22
  br label %44

43:                                               ; preds = %32
  br label %44

44:                                               ; preds = %43, %37
  %45 = load ptr, ptr %2, align 8, !tbaa !8
  %46 = icmp ne ptr %45, null
  br i1 %46, label %47, label %49

47:                                               ; preds = %44
  %48 = load ptr, ptr %2, align 8, !tbaa !8
  call void @free(ptr noundef %48) #12
  store ptr null, ptr %2, align 8, !tbaa !8
  br label %50

49:                                               ; preds = %44
  br label %50

50:                                               ; preds = %49, %47
  ret void
}