; Function Attrs: mustprogress nounwind willreturn uwtable
define void @Gia_IsoManStop(ptr noundef captures(none) %0) local_unnamed_addr #3 {
  %2 = getelementptr inbounds nuw i8, ptr %0, i64 64
  %3 = load ptr, ptr %2, align 8, !tbaa !40
  %4 = getelementptr inbounds nuw i8, ptr %3, i64 8
  %5 = load ptr, ptr %4, align 8, !tbaa !39
  %.not.i = icmp eq ptr %5, null
  br i1 %.not.i, label %Vec_IntFree.exit, label %6

6:                                                ; preds = %1
  tail call void @free(ptr noundef nonnull %5) #26
  br label %Vec_IntFree.exit

Vec_IntFree.exit:                                 ; preds = %1, %6
  tail call void @free(ptr noundef nonnull %3) #26
  %7 = getelementptr inbounds nuw i8, ptr %0, i64 72
  %8 = load ptr, ptr %7, align 8, !tbaa !41
  %9 = getelementptr inbounds nuw i8, ptr %8, i64 8
  %10 = load ptr, ptr %9, align 8, !tbaa !39
  %.not.i19 = icmp eq ptr %10, null
  br i1 %.not.i19, label %Vec_IntFree.exit20, label %11

11:                                               ; preds = %Vec_IntFree.exit
  tail call void @free(ptr noundef nonnull %10) #26
  br label %Vec_IntFree.exit20

Vec_IntFree.exit20:                               ; preds = %Vec_IntFree.exit, %11
  tail call void @free(ptr noundef nonnull %8) #26
  %12 = getelementptr inbounds nuw i8, ptr %0, i64 24
  %13 = load ptr, ptr %12, align 8, !tbaa !34
  %.not = icmp eq ptr %13, null
  br i1 %.not, label %15, label %14

14:                                               ; preds = %Vec_IntFree.exit20
  tail call void @free(ptr noundef nonnull %13) #26
  store ptr null, ptr %12, align 8, !tbaa !34
  br label %15

15:                                               ; preds = %Vec_IntFree.exit20, %14
  %16 = getelementptr inbounds nuw i8, ptr %0, i64 32
  %17 = load ptr, ptr %16, align 8, !tbaa !35
  %.not16 = icmp eq ptr %17, null
  br i1 %.not16, label %19, label %18

18:                                               ; preds = %15
  tail call void @free(ptr noundef nonnull %17) #26
  store ptr null, ptr %16, align 8, !tbaa !35
  br label %19

19:                                               ; preds = %15, %18
  %20 = getelementptr inbounds nuw i8, ptr %0, i64 40
  %21 = load ptr, ptr %20, align 8, !tbaa !36
  %.not17 = icmp eq ptr %21, null
  br i1 %.not17, label %23, label %22

22:                                               ; preds = %19
  tail call void @free(ptr noundef nonnull %21) #26
  br label %23

23:                                               ; preds = %19, %22
  tail call void @free(ptr noundef nonnull %0) #26
  ret void
}